; ModuleID = '10/2135.c'
source_filename = "10/2135.c"
target datalayout = "e-m:e-p270:32:32-p271:32:32-p272:64:64-i64:64-f80:128-n8:16:32:64-S128"
target triple = "x86_64-pc-linux-gnu"

@N = dso_local constant i32 30, align 4
@.str = private unnamed_addr constant [3 x i8] c"%d\00", align 1
@a = common dso_local global [30 x i32] zeroinitializer, align 16
@len = common dso_local global [30 x i32] zeroinitializer, align 16
@.str.1 = private unnamed_addr constant [4 x i8] c"%d\0A\00", align 1

; Function Attrs: noinline nounwind uwtable
define dso_local i32 @main() #0 {
  %1 = alloca i32, align 4
  %2 = alloca i32, align 4
  %3 = alloca i32, align 4
  %4 = alloca i32, align 4
  %5 = alloca i32, align 4
  store i32 0, i32* %1, align 4
  %6 = call i32 (i8*, ...) @__isoc99_scanf(i8* getelementptr inbounds ([3 x i8], [3 x i8]* @.str, i64 0, i64 0), i32* %2)
  store i32 0, i32* %3, align 4
  br label %7

7:                                                ; preds = %16, %0
  %8 = load i32, i32* %3, align 4
  %9 = load i32, i32* %2, align 4
  %10 = icmp slt i32 %8, %9
  br i1 %10, label %11, label %19

11:                                               ; preds = %7
  %12 = load i32, i32* %3, align 4
  %13 = sext i32 %12 to i64
  %14 = getelementptr inbounds [30 x i32], [30 x i32]* @a, i64 0, i64 %13
  %15 = call i32 (i8*, ...) @__isoc99_scanf(i8* getelementptr inbounds ([3 x i8], [3 x i8]* @.str, i64 0, i64 0), i32* %14)
  br label %16

16:                                               ; preds = %11
  %17 = load i32, i32* %3, align 4
  %18 = add nsw i32 %17, 1
  store i32 %18, i32* %3, align 4
  br label %7

19:                                               ; preds = %7
  store i32 1, i32* getelementptr inbounds ([30 x i32], [30 x i32]* @len, i64 0, i64 0), align 16
  store i32 1, i32* %3, align 4
  br label %20

20:                                               ; preds = %61, %19
  %21 = load i32, i32* %3, align 4
  %22 = load i32, i32* %2, align 4
  %23 = icmp slt i32 %21, %22
  br i1 %23, label %24, label %64

24:                                               ; preds = %20
  store i32 1, i32* %5, align 4
  store i32 0, i32* %4, align 4
  br label %25

25:                                               ; preds = %52, %24
  %26 = load i32, i32* %4, align 4
  %27 = load i32, i32* %3, align 4
  %28 = icmp slt i32 %26, %27
  br i1 %28, label %29, label %55

29:                                               ; preds = %25
  %30 = load i32, i32* %4, align 4
  %31 = sext i32 %30 to i64
  %32 = getelementptr inbounds [30 x i32], [30 x i32]* @a, i64 0, i64 %31
  %33 = load i32, i32* %32, align 4
  %34 = load i32, i32* %3, align 4
  %35 = sext i32 %34 to i64
  %36 = getelementptr inbounds [30 x i32], [30 x i32]* @a, i64 0, i64 %35
  %37 = load i32, i32* %36, align 4
  %38 = icmp sgt i32 %33, %37
  br i1 %38, label %39, label %51

39:                                               ; preds = %29
  %40 = load i32, i32* %5, align 4
  %41 = load i32, i32* %4, align 4
  %42 = sext i32 %41 to i64
  %43 = getelementptr inbounds [30 x i32], [30 x i32]* @len, i64 0, i64 %42
  %44 = load i32, i32* %43, align 4
  %45 = icmp slt i32 %40, %44
  br i1 %45, label %46, label %51

46:                                               ; preds = %39
  %47 = load i32, i32* %4, align 4
  %48 = sext i32 %47 to i64
  %49 = getelementptr inbounds [30 x i32], [30 x i32]* @len, i64 0, i64 %48
  %50 = load i32, i32* %49, align 4
  store i32 %50, i32* %5, align 4
  br label %51

51:                                               ; preds = %46, %39, %29
  br label %52

52:                                               ; preds = %51
  %53 = load i32, i32* %4, align 4
  %54 = add nsw i32 %53, 1
  store i32 %54, i32* %4, align 4
  br label %25

55:                                               ; preds = %25
  %56 = load i32, i32* %5, align 4
  %57 = add nsw i32 %56, 1
  %58 = load i32, i32* %3, align 4
  %59 = sext i32 %58 to i64
  %60 = getelementptr inbounds [30 x i32], [30 x i32]* @len, i64 0, i64 %59
  store i32 %57, i32* %60, align 4
  br label %61

61:                                               ; preds = %55
  %62 = load i32, i32* %3, align 4
  %63 = add nsw i32 %62, 1
  store i32 %63, i32* %3, align 4
  br label %20

64:                                               ; preds = %20
  store i32 -1, i32* %5, align 4
  store i32 0, i32* %3, align 4
  br label %65

65:                                               ; preds = %82, %64
  %66 = load i32, i32* %3, align 4
  %67 = load i32, i32* %2, align 4
  %68 = icmp slt i32 %66, %67
  br i1 %68, label %69, label %85

69:                                               ; preds = %65
  %70 = load i32, i32* %5, align 4
  %71 = load i32, i32* %3, align 4
  %72 = sext i32 %71 to i64
  %73 = getelementptr inbounds [30 x i32], [30 x i32]* @len, i64 0, i64 %72
  %74 = load i32, i32* %73, align 4
  %75 = icmp slt i32 %70, %74
  br i1 %75, label %76, label %81

76:                                               ; preds = %69
  %77 = load i32, i32* %3, align 4
  %78 = sext i32 %77 to i64
  %79 = getelementptr inbounds [30 x i32], [30 x i32]* @len, i64 0, i64 %78
  %80 = load i32, i32* %79, align 4
  store i32 %80, i32* %5, align 4
  br label %81

81:                                               ; preds = %76, %69
  br label %82

82:                                               ; preds = %81
  %83 = load i32, i32* %3, align 4
  %84 = add nsw i32 %83, 1
  store i32 %84, i32* %3, align 4
  br label %65

85:                                               ; preds = %65
  %86 = load i32, i32* %5, align 4
  %87 = call i32 (i8*, ...) @printf(i8* getelementptr inbounds ([4 x i8], [4 x i8]* @.str.1, i64 0, i64 0), i32 %86)
  ret i32 0
}

declare dso_local i32 @__isoc99_scanf(i8*, ...) #1

declare dso_local i32 @printf(i8*, ...) #1


!llvm.module.flags = !{!0}
!llvm.ident = !{!1}

!0 = !{i32 1, !"wchar_size", i32 4}
!1 = !{!"clang version 10.0.0-4ubuntu1 "}
